; Function Attrs: nounwind uwtable
define range(i32 0, 2) i32 @ossl_ec_key_is_foreign(ptr noundef %0) local_unnamed_addr #0 {
  %2 = getelementptr inbounds nuw i8, ptr %0, i64 8
  %3 = load ptr, ptr %2, align 8, !tbaa !33
  %.not = icmp eq ptr %3, null
  br i1 %.not, label %4, label %7

4:                                                ; preds = %1
  %5 = tail call ptr @EC_KEY_get_method(ptr noundef nonnull %0) #4
  %6 = tail call ptr @EC_KEY_OpenSSL() #4
  %.not2 = icmp ne ptr %5, %6
  %spec.select = zext i1 %.not2 to i32
  br label %7

7:                                                ; preds = %4, %1
  %.0 = phi i32 [ 1, %1 ], [ %spec.select, %4 ]
  ret i32 %.0
}